target datalayout = "e-m:e-p270:32:32-p271:32:32-p272:64:64-i64:64-i128:128-f80:128-n8:16:32:64-S128"
target triple = "x86_64-pc-linux-gnu"

@hf_ndmp_file_fs_type = internal global i32 0, align 4
@hf_ndmp_file_type = internal global i32 0, align 4
@hf_ndmp_file_invalid = internal global i32 0, align 4
@hf_ndmp_file_mtime = internal global i32 0, align 4
@hf_ndmp_file_atime = internal global i32 0, align 4
@hf_ndmp_file_ctime = internal global i32 0, align 4
@hf_ndmp_file_owner = internal global i32 0, align 4
@hf_ndmp_file_group = internal global i32 0, align 4
@hf_ndmp_file_fattr = internal global i32 0, align 4
@hf_ndmp_file_size = internal global i32 0, align 4
@hf_ndmp_file_links = internal global i32 0, align 4
@ett_ndmp_file_stats = internal global i32 0, align 4
@ett_ndmp_file_invalids = internal global i32 0, align 4
@.str.762 = private unnamed_addr constant [7 x i8] c"Stats:\00", align 1
@dissect_file_invalids.invalid_files = internal constant [4 x ptr] [ptr @hf_ndmp_file_invalid_group, ptr @hf_ndmp_file_invalid_ctime, ptr @hf_ndmp_file_invalid_atime, ptr null], align 16

; Function Attrs: null_pointer_is_valid sspstrong uwtable
define internal i32 @dissect_file_invalids(ptr noundef %0, i32 noundef %1, ptr noundef %2, ptr noundef %3) #0 {
  %5 = alloca ptr, align 8
  %6 = alloca i32, align 4
  %7 = alloca ptr, align 8
  %8 = alloca ptr, align 8
  store ptr %0, ptr %5, align 8
  store i32 %1, ptr %6, align 4
  store ptr %2, ptr %7, align 8
  store ptr %3, ptr %8, align 8
  %9 = load ptr, ptr %8, align 8
  %10 = load ptr, ptr %5, align 8
  %11 = load i32, ptr %6, align 4
  %12 = load i32, ptr @hf_ndmp_file_invalid, align 4
  %13 = load i32, ptr @ett_ndmp_file_invalids, align 4
  %14 = call ptr @proto_tree_add_bitmask(ptr noundef %9, ptr noundef %10, i32 noundef %11, i32 noundef %12, i32 noundef %13, ptr noundef @dissect_file_invalids.invalid_files, i32 noundef 0)
  %15 = load i32, ptr %6, align 4
  %16 = add i32 %15, 4
  store i32 %16, ptr %6, align 4
  %17 = load i32, ptr %6, align 4
  ret i32 %17
}

; Function Attrs: null_pointer_is_valid sspstrong uwtable
define internal i32 @dissect_file_stats(ptr noundef %0, i32 noundef %1, ptr noundef %2, ptr noundef %3, ptr noundef %4) #0 {
  %6 = alloca ptr, align 8
  %7 = alloca i32, align 4
  %8 = alloca ptr, align 8
  %9 = alloca ptr, align 8
  %10 = alloca ptr, align 8
  %11 = alloca ptr, align 8
  %12 = alloca ptr, align 8
  %13 = alloca i32, align 4
  store ptr %0, ptr %6, align 8
  store i32 %1, ptr %7, align 4
  store ptr %2, ptr %8, align 8
  store ptr %3, ptr %9, align 8
  store ptr %4, ptr %10, align 8
  call void @llvm.lifetime.start.p0(i64 8, ptr %11) #9
  call void @llvm.lifetime.start.p0(i64 8, ptr %12) #9
  call void @llvm.lifetime.start.p0(i64 4, ptr %13) #9
  %14 = load i32, ptr %7, align 4
  store i32 %14, ptr %13, align 4
  %15 = load ptr, ptr %9, align 8
  %16 = load ptr, ptr %6, align 8
  %17 = load i32, ptr %7, align 4
  %18 = load i32, ptr @ett_ndmp_file_stats, align 4
  %19 = call ptr @proto_tree_add_subtree(ptr noundef %15, ptr noundef %16, i32 noundef %17, i32 noundef -1, i32 noundef %18, ptr noundef %11, ptr noundef @.str.762)
  store ptr %19, ptr %12, align 8
  %20 = load ptr, ptr %6, align 8
  %21 = load i32, ptr %7, align 4
  %22 = load ptr, ptr %8, align 8
  %23 = load ptr, ptr %12, align 8
  %24 = call i32 @dissect_file_invalids(ptr noundef %20, i32 noundef %21, ptr noundef %22, ptr noundef %23)
  store i32 %24, ptr %7, align 4
  %25 = load ptr, ptr %12, align 8
  %26 = load i32, ptr @hf_ndmp_file_fs_type, align 4
  %27 = load ptr, ptr %6, align 8
  %28 = load i32, ptr %7, align 4
  %29 = call ptr @proto_tree_add_item(ptr noundef %25, i32 noundef %26, ptr noundef %27, i32 noundef %28, i32 noundef 4, i32 noundef 0)
  %30 = load i32, ptr %7, align 4
  %31 = add i32 %30, 4
  store i32 %31, ptr %7, align 4
  %32 = load ptr, ptr %12, align 8
  %33 = load i32, ptr @hf_ndmp_file_type, align 4
  %34 = load ptr, ptr %6, align 8
  %35 = load i32, ptr %7, align 4
  %36 = call ptr @proto_tree_add_item(ptr noundef %32, i32 noundef %33, ptr noundef %34, i32 noundef %35, i32 noundef 4, i32 noundef 0)
  %37 = load i32, ptr %7, align 4
  %38 = add i32 %37, 4
  store i32 %38, ptr %7, align 4
  %39 = load ptr, ptr %12, align 8
  %40 = load i32, ptr @hf_ndmp_file_mtime, align 4
  %41 = load ptr, ptr %6, align 8
  %42 = load i32, ptr %7, align 4
  %43 = call ptr @proto_tree_add_item(ptr noundef %39, i32 noundef %40, ptr noundef %41, i32 noundef %42, i32 noundef 4, i32 noundef 18)
  %44 = load i32, ptr %7, align 4
  %45 = add i32 %44, 4
  store i32 %45, ptr %7, align 4
  %46 = load ptr, ptr %12, align 8
  %47 = load i32, ptr @hf_ndmp_file_atime, align 4
  %48 = load ptr, ptr %6, align 8
  %49 = load i32, ptr %7, align 4
  %50 = call ptr @proto_tree_add_item(ptr noundef %46, i32 noundef %47, ptr noundef %48, i32 noundef %49, i32 noundef 4, i32 noundef 18)
  %51 = load i32, ptr %7, align 4
  %52 = add i32 %51, 4
  store i32 %52, ptr %7, align 4
  %53 = load ptr, ptr %12, align 8
  %54 = load i32, ptr @hf_ndmp_file_ctime, align 4
  %55 = load ptr, ptr %6, align 8
  %56 = load i32, ptr %7, align 4
  %57 = call ptr @proto_tree_add_item(ptr noundef %53, i32 noundef %54, ptr noundef %55, i32 noundef %56, i32 noundef 4, i32 noundef 18)
  %58 = load i32, ptr %7, align 4
  %59 = add i32 %58, 4
  store i32 %59, ptr %7, align 4
  %60 = load ptr, ptr %12, align 8
  %61 = load i32, ptr @hf_ndmp_file_owner, align 4
  %62 = load ptr, ptr %6, align 8
  %63 = load i32, ptr %7, align 4
  %64 = call ptr @proto_tree_add_item(ptr noundef %60, i32 noundef %61, ptr noundef %62, i32 noundef %63, i32 noundef 4, i32 noundef 0)
  %65 = load i32, ptr %7, align 4
  %66 = add i32 %65, 4
  store i32 %66, ptr %7, align 4
  %67 = load ptr, ptr %12, align 8
  %68 = load i32, ptr @hf_ndmp_file_group, align 4
  %69 = load ptr, ptr %6, align 8
  %70 = load i32, ptr %7, align 4
  %71 = call ptr @proto_tree_add_item(ptr noundef %67, i32 noundef %68, ptr noundef %69, i32 noundef %70, i32 noundef 4, i32 noundef 0)
  %72 = load i32, ptr %7, align 4
  %73 = add i32 %72, 4
  store i32 %73, ptr %7, align 4
  %74 = load ptr, ptr %12, align 8
  %75 = load i32, ptr @hf_ndmp_file_fattr, align 4
  %76 = load ptr, ptr %6, align 8
  %77 = load i32, ptr %7, align 4
  %78 = call ptr @proto_tree_add_item(ptr noundef %74, i32 noundef %75, ptr noundef %76, i32 noundef %77, i32 noundef 4, i32 noundef 0)
  %79 = load i32, ptr %7, align 4
  %80 = add i32 %79, 4
  store i32 %80, ptr %7, align 4
  %81 = load ptr, ptr %6, align 8
  %82 = load ptr, ptr %12, align 8
  %83 = load i32, ptr @hf_ndmp_file_size, align 4
  %84 = load i32, ptr %7, align 4
  %85 = call i32 @dissect_rpc_uint64(ptr noundef %81, ptr noundef %82, i32 noundef %83, i32 noundef %84)
  store i32 %85, ptr %7, align 4
  %86 = load ptr, ptr %12, align 8
  %87 = load i32, ptr @hf_ndmp_file_links, align 4
  %88 = load ptr, ptr %6, align 8
  %89 = load i32, ptr %7, align 4
  %90 = call ptr @proto_tree_add_item(ptr noundef %86, i32 noundef %87, ptr noundef %88, i32 noundef %89, i32 noundef 4, i32 noundef 0)
  %91 = load i32, ptr %7, align 4
  %92 = add i32 %91, 4
  store i32 %92, ptr %7, align 4
  %93 = load ptr, ptr %11, align 8
  %94 = load i32, ptr %7, align 4
  %95 = load i32, ptr %13, align 4
  %96 = sub i32 %94, %95
  call void @proto_item_set_len(ptr noundef %93, i32 noundef %96)
  %97 = load i32, ptr %7, align 4
  call void @llvm.lifetime.end.p0(i64 4, ptr %13) #9
  call void @llvm.lifetime.end.p0(i64 8, ptr %12) #9
  call void @llvm.lifetime.end.p0(i64 8, ptr %11) #9
  ret i32 %97
}