; Function Attrs: null_pointer_is_valid sspstrong uwtable
define internal noundef i32 @dissect_file_stats(ptr noundef %0, i32 noundef %1, ptr readnone captures(none) %2, ptr noundef %3, ptr readnone captures(none) %4) #0 {
  %6 = alloca ptr, align 8
  call void @llvm.lifetime.start.p0(i64 8, ptr nonnull %6) #10
  %7 = load i32, ptr @ett_ndmp_file_stats, align 4
  %8 = call ptr @proto_tree_add_subtree(ptr noundef %3, ptr noundef %0, i32 noundef %1, i32 noundef -1, i32 noundef %7, ptr noundef nonnull %6, ptr noundef nonnull @.str.762)
  %9 = load i32, ptr @hf_ndmp_file_invalid, align 4
  %10 = load i32, ptr @ett_ndmp_file_invalids, align 4
  %11 = call ptr @proto_tree_add_bitmask(ptr noundef %8, ptr noundef %0, i32 noundef %1, i32 noundef %9, i32 noundef %10, ptr noundef nonnull @dissect_file_invalids.invalid_files, i32 noundef 0)
  %12 = add i32 %1, 4
  %13 = load i32, ptr @hf_ndmp_file_fs_type, align 4
  %14 = call ptr @proto_tree_add_item(ptr noundef %8, i32 noundef %13, ptr noundef %0, i32 noundef %12, i32 noundef 4, i32 noundef 0)
  %15 = add i32 %1, 8
  %16 = load i32, ptr @hf_ndmp_file_type, align 4
  %17 = call ptr @proto_tree_add_item(ptr noundef %8, i32 noundef %16, ptr noundef %0, i32 noundef %15, i32 noundef 4, i32 noundef 0)
  %18 = add i32 %1, 12
  %19 = load i32, ptr @hf_ndmp_file_mtime, align 4
  %20 = call ptr @proto_tree_add_item(ptr noundef %8, i32 noundef %19, ptr noundef %0, i32 noundef %18, i32 noundef 4, i32 noundef 18)
  %21 = add i32 %1, 16
  %22 = load i32, ptr @hf_ndmp_file_atime, align 4
  %23 = call ptr @proto_tree_add_item(ptr noundef %8, i32 noundef %22, ptr noundef %0, i32 noundef %21, i32 noundef 4, i32 noundef 18)
  %24 = add i32 %1, 20
  %25 = load i32, ptr @hf_ndmp_file_ctime, align 4
  %26 = call ptr @proto_tree_add_item(ptr noundef %8, i32 noundef %25, ptr noundef %0, i32 noundef %24, i32 noundef 4, i32 noundef 18)
  %27 = add i32 %1, 24
  %28 = load i32, ptr @hf_ndmp_file_owner, align 4
  %29 = call ptr @proto_tree_add_item(ptr noundef %8, i32 noundef %28, ptr noundef %0, i32 noundef %27, i32 noundef 4, i32 noundef 0)
  %30 = add i32 %1, 28
  %31 = load i32, ptr @hf_ndmp_file_group, align 4
  %32 = call ptr @proto_tree_add_item(ptr noundef %8, i32 noundef %31, ptr noundef %0, i32 noundef %30, i32 noundef 4, i32 noundef 0)
  %33 = add i32 %1, 32
  %34 = load i32, ptr @hf_ndmp_file_fattr, align 4
  %35 = call ptr @proto_tree_add_item(ptr noundef %8, i32 noundef %34, ptr noundef %0, i32 noundef %33, i32 noundef 4, i32 noundef 0)
  %36 = add i32 %1, 36
  %37 = load i32, ptr @hf_ndmp_file_size, align 4
  %38 = call i32 @dissect_rpc_uint64(ptr noundef %0, ptr noundef %8, i32 noundef %37, i32 noundef %36)
  %39 = load i32, ptr @hf_ndmp_file_links, align 4
  %40 = call ptr @proto_tree_add_item(ptr noundef %8, i32 noundef %39, ptr noundef %0, i32 noundef %38, i32 noundef 4, i32 noundef 0)
  %41 = add i32 %38, 4
  %42 = load ptr, ptr %6, align 8
  %43 = sub i32 %41, %1
  call void @proto_item_set_len(ptr noundef %42, i32 noundef %43)
  call void @llvm.lifetime.end.p0(i64 8, ptr nonnull %6) #10
  ret i32 %41
}